target datalayout = "e-m:e-p270:32:32-p271:32:32-p272:64:64-i64:64-i128:128-f80:128-n8:16:32:64-S128"
target triple = "x86_64-unknown-linux-gnu"

%struct.redisCommand = type { ptr, ptr, ptr, ptr, i32, ptr, ptr, i32, ptr, i32, ptr, i32, ptr, i32, i64, i64, ptr, i32, ptr, i32, ptr, ptr, i64, i64, i64, i64, i32, ptr, ptr, %struct.keySpec, ptr, ptr, ptr }
%struct.keySpec = type { ptr, i64, i32, %union.anon, i32, %union.anon.2 }
%union.anon = type { %struct.anon.1 }
%struct.anon.1 = type { ptr, i32 }
%union.anon.2 = type { %struct.anon.3 }
%struct.anon.3 = type { i32, i32, i32 }
%struct.listNode = type { ptr, ptr, ptr }
%struct.client = type { i64, i64, ptr, i32, ptr, ptr, ptr, ptr, ptr, i64, i64, i32, ptr, i32, i32, ptr, i64, ptr, ptr, ptr, ptr, i32, i32, i64, ptr, i64, ptr, i64, i64, i64, i32, ptr, i64, i64, i32, i32, i32, i32, i64, i64, ptr, i64, i64, i64, i64, i64, i64, i64, i64, [41 x i8], i32, ptr, i32, i32, %struct.multiState, %struct.blockingState, i64, ptr, ptr, ptr, ptr, ptr, ptr, ptr, ptr, ptr, ptr, ptr, ptr, ptr, ptr, i64, ptr, i64, i32, ptr, ptr, ptr, i64, %struct.listNode, i64, i64, i32, i64, ptr }
%struct.multiState = type { ptr, i32, i32, i32, i64, i32 }
%struct.blockingState = type { i32, i64, i32, ptr, i32, i32, i64, ptr, ptr }

@.str.9 = private unnamed_addr constant [9 x i8] c"server.c\00", align 1
@.str.167 = private unnamed_addr constant [48 x i8] c"c->cmd->flags & (CMD_WRITE | CMD_MAY_REPLICATE)\00", align 1

; Function Attrs: nounwind uwtable
define dso_local void @forceCommandPropagation(ptr noundef %c, i32 noundef %flags) #0 {
entry:
  %c.addr = alloca ptr, align 8
  %flags.addr = alloca i32, align 4
  store ptr %c, ptr %c.addr, align 8
  store i32 %flags, ptr %flags.addr, align 4
  %0 = load ptr, ptr %c.addr, align 8
  %cmd = getelementptr inbounds %struct.client, ptr %0, i32 0, i32 17
  %1 = load ptr, ptr %cmd, align 8
  %flags1 = getelementptr inbounds %struct.redisCommand, ptr %1, i32 0, i32 14
  %2 = load i64, ptr %flags1, align 8
  %and = and i64 %2, 65537
  %tobool = icmp ne i64 %and, 0
  %lnot = xor i1 %tobool, true
  %lnot2 = xor i1 %lnot, true
  %lnot.ext = zext i1 %lnot2 to i32
  %conv = sext i32 %lnot.ext to i64
  %tobool3 = icmp ne i64 %conv, 0
  br i1 %tobool3, label %cond.true, label %cond.false

cond.true:                                        ; preds = %entry
  br label %cond.end

cond.false:                                       ; preds = %entry
  call void @_serverAssert(ptr noundef @.str.167, ptr noundef @.str.9, i32 noundef 3378)
  call void @abort() #16
  unreachable

3:                                                ; No predecessors!
  br label %cond.end

cond.end:                                         ; preds = %3, %cond.true
  %4 = load i32, ptr %flags.addr, align 4
  %and4 = and i32 %4, 2
  %tobool5 = icmp ne i32 %and4, 0
  br i1 %tobool5, label %if.then, label %if.end

if.then:                                          ; preds = %cond.end
  %5 = load ptr, ptr %c.addr, align 8
  %flags6 = getelementptr inbounds %struct.client, ptr %5, i32 0, i32 1
  %6 = load i64, ptr %flags6, align 8
  %or = or i64 %6, 32768
  store i64 %or, ptr %flags6, align 8
  br label %if.end

if.end:                                           ; preds = %if.then, %cond.end
  %7 = load i32, ptr %flags.addr, align 4
  %and7 = and i32 %7, 1
  %tobool8 = icmp ne i32 %and7, 0
  br i1 %tobool8, label %if.then9, label %if.end12

if.then9:                                         ; preds = %if.end
  %8 = load ptr, ptr %c.addr, align 8
  %flags10 = getelementptr inbounds %struct.client, ptr %8, i32 0, i32 1
  %9 = load i64, ptr %flags10, align 8
  %or11 = or i64 %9, 16384
  store i64 %or11, ptr %flags10, align 8
  br label %if.end12

if.end12:                                         ; preds = %if.then9, %if.end
  ret void
}