; Function Attrs: nounwind uwtable
define dso_local void @forceCommandPropagation(ptr nocapture noundef %c, i32 noundef %flags) local_unnamed_addr #0 {
entry:
  %cmd = getelementptr inbounds i8, ptr %c, i64 128
  %0 = load ptr, ptr %cmd, align 8
  %flags1 = getelementptr inbounds i8, ptr %0, i64 112
  %1 = load i64, ptr %flags1, align 8
  %and = and i64 %1, 65537
  %tobool.not = icmp eq i64 %and, 0
  br i1 %tobool.not, label %cond.false, label %cond.end

cond.false:                                       ; preds = %entry
  tail call void @_serverAssert(ptr noundef nonnull @.str.167, ptr noundef nonnull @.str.9, i32 noundef 3378) #38
  tail call void @abort() #40
  unreachable

cond.end:                                         ; preds = %entry
  %and4 = and i32 %flags, 2
  %tobool5.not = icmp eq i32 %and4, 0
  br i1 %tobool5.not, label %if.end, label %if.then

if.then:                                          ; preds = %cond.end
  %flags6 = getelementptr inbounds i8, ptr %c, i64 8
  %2 = load i64, ptr %flags6, align 8
  %or = or i64 %2, 32768
  store i64 %or, ptr %flags6, align 8
  br label %if.end

if.end:                                           ; preds = %if.then, %cond.end
  %and7 = and i32 %flags, 1
  %tobool8.not = icmp eq i32 %and7, 0
  br i1 %tobool8.not, label %if.end12, label %if.then9

if.then9:                                         ; preds = %if.end
  %flags10 = getelementptr inbounds i8, ptr %c, i64 8
  %3 = load i64, ptr %flags10, align 8
  %or11 = or i64 %3, 16384
  store i64 %or11, ptr %flags10, align 8
  br label %if.end12

if.end12:                                         ; preds = %if.then9, %if.end
  ret void
}